; Function Attrs: mustprogress uwtable
define void @_ZNK8QuantLib16LossDistBinomialclERKSt6vectorIdSaIdEES5_(ptr dead_on_unwind noalias writable sret(%"class.QuantLib::Distribution") align 8 %agg.result, ptr noundef nonnull align 8 dereferenceable(88) %this, ptr nocapture noundef nonnull readonly align 8 dereferenceable(24) %nominals, ptr nocapture noundef nonnull readonly align 8 dereferenceable(24) %probabilities) unnamed_addr #3 align 2 {
entry:
  %_M_finish.i = getelementptr inbounds nuw i8, ptr %nominals, i64 8
  %0 = load ptr, ptr %_M_finish.i, align 8, !tbaa !10
  %1 = load ptr, ptr %nominals, align 8, !tbaa !3
  %sub.ptr.lhs.cast.i = ptrtoint ptr %0 to i64
  %sub.ptr.rhs.cast.i = ptrtoint ptr %1 to i64
  %sub.ptr.sub.i = sub i64 %sub.ptr.lhs.cast.i, %sub.ptr.rhs.cast.i
  %sub.ptr.div.i = ashr exact i64 %sub.ptr.sub.i, 3
  %2 = load double, ptr %1, align 8, !tbaa !8
  %3 = load ptr, ptr %probabilities, align 8, !tbaa !3
  %4 = load double, ptr %3, align 8, !tbaa !8
  tail call void @_ZNK8QuantLib16LossDistBinomialclEmdd(ptr dead_on_unwind writable sret(%"class.QuantLib::Distribution") align 8 %agg.result, ptr noundef nonnull align 8 dereferenceable(88) %this, i64 noundef %sub.ptr.div.i, double noundef %2, double noundef %4)
  ret void
}